target datalayout = "e-m:e-p270:32:32-p271:32:32-p272:64:64-i64:64-i128:128-f80:128-n8:16:32:64-S128"
target triple = "x86_64-pc-linux-gnu"

%"class.Luau::CodeGen::UnwindBuilderDwarf2" = type { %"class.Luau::CodeGen::UnwindBuilder", i64, %"class.std::vector", [1024 x i8], ptr, ptr }
%"class.Luau::CodeGen::UnwindBuilder" = type { ptr }
%"class.std::vector" = type { %"struct.std::_Vector_base" }
%"struct.std::_Vector_base" = type { %"struct.std::_Vector_base<Luau::CodeGen::UnwindFunctionDwarf2, std::allocator<Luau::CodeGen::UnwindFunctionDwarf2>>::_Vector_impl" }
%"struct.std::_Vector_base<Luau::CodeGen::UnwindFunctionDwarf2, std::allocator<Luau::CodeGen::UnwindFunctionDwarf2>>::_Vector_impl" = type { %"struct.std::_Vector_base<Luau::CodeGen::UnwindFunctionDwarf2, std::allocator<Luau::CodeGen::UnwindFunctionDwarf2>>::_Vector_impl_data" }
%"struct.std::_Vector_base<Luau::CodeGen::UnwindFunctionDwarf2, std::allocator<Luau::CodeGen::UnwindFunctionDwarf2>>::_Vector_impl_data" = type { ptr, ptr, ptr }
%"struct.Luau::CodeGen::UnwindFunctionDwarf2" = type { i32, i32, i32 }
%"class.__gnu_cxx::__normal_iterator" = type { ptr }

@_ZN4Luau7CodeGenL18kFullBlockFunctionE = internal global i32 -1, align 4

; Function Attrs: mustprogress nounwind uwtable
define linkonce_odr dso_local noundef nonnull align 8 dereferenceable(8) ptr @_ZNK9__gnu_cxx17__normal_iteratorIPKN4Luau7CodeGen20UnwindFunctionDwarf2ESt6vectorIS3_SaIS3_EEE4baseEv(ptr noundef nonnull align 8 dereferenceable(8) %0) #0 comdat align 2 {
  %2 = alloca ptr, align 8
  store ptr %0, ptr %2, align 8, !tbaa !63
  %3 = load ptr, ptr %2, align 8
  %4 = getelementptr inbounds nuw %"class.__gnu_cxx::__normal_iterator", ptr %3, i32 0, i32 0
  ret ptr %4
}

; Function Attrs: mustprogress nounwind uwtable
define linkonce_odr dso_local void @_ZN9__gnu_cxx17__normal_iteratorIPKN4Luau7CodeGen20UnwindFunctionDwarf2ESt6vectorIS3_SaIS3_EEEC2ERKS5_(ptr noundef nonnull align 8 dereferenceable(8) %0, ptr noundef nonnull align 8 dereferenceable(8) %1) unnamed_addr #0 comdat align 2 {
  %3 = alloca ptr, align 8
  %4 = alloca ptr, align 8
  store ptr %0, ptr %3, align 8, !tbaa !63
  store ptr %1, ptr %4, align 8, !tbaa !82
  %5 = load ptr, ptr %3, align 8
  %6 = getelementptr inbounds nuw %"class.__gnu_cxx::__normal_iterator", ptr %5, i32 0, i32 0
  %7 = load ptr, ptr %4, align 8, !tbaa !82
  %8 = load ptr, ptr %7, align 8, !tbaa !37
  store ptr %8, ptr %6, align 8, !tbaa !65
  ret void
}

; Function Attrs: mustprogress nounwind uwtable
define linkonce_odr dso_local noundef i64 @_ZNKSt6vectorIN4Luau7CodeGen20UnwindFunctionDwarf2ESaIS2_EE4sizeEv(ptr noundef nonnull align 8 dereferenceable(24) %0) #0 comdat align 2 {
  %2 = alloca ptr, align 8
  store ptr %0, ptr %2, align 8, !tbaa !35
  %3 = load ptr, ptr %2, align 8
  %4 = getelementptr inbounds nuw %"struct.std::_Vector_base", ptr %3, i32 0, i32 0
  %5 = getelementptr inbounds nuw %"struct.std::_Vector_base<Luau::CodeGen::UnwindFunctionDwarf2, std::allocator<Luau::CodeGen::UnwindFunctionDwarf2>>::_Vector_impl_data", ptr %4, i32 0, i32 1
  %6 = load ptr, ptr %5, align 8, !tbaa !38
  %7 = getelementptr inbounds nuw %"struct.std::_Vector_base", ptr %3, i32 0, i32 0
  %8 = getelementptr inbounds nuw %"struct.std::_Vector_base<Luau::CodeGen::UnwindFunctionDwarf2, std::allocator<Luau::CodeGen::UnwindFunctionDwarf2>>::_Vector_impl_data", ptr %7, i32 0, i32 0
  %9 = load ptr, ptr %8, align 8, !tbaa !67
  %10 = ptrtoint ptr %6 to i64
  %11 = ptrtoint ptr %9 to i64
  %12 = sub i64 %10, %11
  %13 = sdiv exact i64 %12, 12
  ret i64 %13
}

; Function Attrs: mustprogress nounwind uwtable
define linkonce_odr dso_local noundef nonnull align 8 dereferenceable(8) ptr @_ZN9__gnu_cxx17__normal_iteratorIPKN4Luau7CodeGen20UnwindFunctionDwarf2ESt6vectorIS3_SaIS3_EEEppEv(ptr noundef nonnull align 8 dereferenceable(8) %0) #0 comdat align 2 {
  %2 = alloca ptr, align 8
  store ptr %0, ptr %2, align 8, !tbaa !63
  %3 = load ptr, ptr %2, align 8
  %4 = getelementptr inbounds nuw %"class.__gnu_cxx::__normal_iterator", ptr %3, i32 0, i32 0
  %5 = load ptr, ptr %4, align 8, !tbaa !65
  %6 = getelementptr inbounds nuw %"struct.Luau::CodeGen::UnwindFunctionDwarf2", ptr %5, i32 1
  store ptr %6, ptr %4, align 8, !tbaa !65
  ret ptr %3
}

; Function Attrs: inlinehint mustprogress nounwind uwtable
define linkonce_odr dso_local noundef ptr @_Z8writeu64Phm(ptr noundef %0, i64 noundef %1) #3 comdat {
  %3 = alloca ptr, align 8
  %4 = alloca i64, align 8
  store ptr %0, ptr %3, align 8, !tbaa !23
  store i64 %1, ptr %4, align 8, !tbaa !9
  %5 = load ptr, ptr %3, align 8, !tbaa !23
  call void @llvm.memcpy.p0.p0.i64(ptr align 1 %5, ptr align 8 %4, i64 8, i1 false)
  %6 = load ptr, ptr %3, align 8, !tbaa !23
  %7 = getelementptr inbounds nuw i8, ptr %6, i64 8
  ret ptr %7
}

; Function Attrs: mustprogress nounwind uwtable
define linkonce_odr dso_local noundef nonnull align 4 dereferenceable(12) ptr @_ZNK9__gnu_cxx17__normal_iteratorIPKN4Luau7CodeGen20UnwindFunctionDwarf2ESt6vectorIS3_SaIS3_EEEdeEv(ptr noundef nonnull align 8 dereferenceable(8) %0) #0 comdat align 2 {
  %2 = alloca ptr, align 8
  store ptr %0, ptr %2, align 8, !tbaa !63
  %3 = load ptr, ptr %2, align 8
  %4 = getelementptr inbounds nuw %"class.__gnu_cxx::__normal_iterator", ptr %3, i32 0, i32 0
  %5 = load ptr, ptr %4, align 8, !tbaa !65
  ret ptr %5
}

; Function Attrs: inlinehint mustprogress nounwind uwtable
define linkonce_odr dso_local noundef zeroext i1 @_ZN9__gnu_cxxneIPKN4Luau7CodeGen20UnwindFunctionDwarf2ESt6vectorIS3_SaIS3_EEEEbRKNS_17__normal_iteratorIT_T0_EESE_(ptr noundef nonnull align 8 dereferenceable(8) %0, ptr noundef nonnull align 8 dereferenceable(8) %1) #3 comdat {
  %3 = alloca ptr, align 8
  %4 = alloca ptr, align 8
  store ptr %0, ptr %3, align 8, !tbaa !63
  store ptr %1, ptr %4, align 8, !tbaa !63
  %5 = load ptr, ptr %3, align 8, !tbaa !63
  %6 = call noundef nonnull align 8 dereferenceable(8) ptr @_ZNK9__gnu_cxx17__normal_iteratorIPKN4Luau7CodeGen20UnwindFunctionDwarf2ESt6vectorIS3_SaIS3_EEE4baseEv(ptr noundef nonnull align 8 dereferenceable(8) %5) #11
  %7 = load ptr, ptr %6, align 8, !tbaa !37
  %8 = load ptr, ptr %4, align 8, !tbaa !63
  %9 = call noundef nonnull align 8 dereferenceable(8) ptr @_ZNK9__gnu_cxx17__normal_iteratorIPKN4Luau7CodeGen20UnwindFunctionDwarf2ESt6vectorIS3_SaIS3_EEE4baseEv(ptr noundef nonnull align 8 dereferenceable(8) %8) #11
  %10 = load ptr, ptr %9, align 8, !tbaa !37
  %11 = icmp ne ptr %7, %10
  ret i1 %11
}

; Function Attrs: mustprogress nounwind uwtable
define linkonce_odr dso_local ptr @_ZNKSt6vectorIN4Luau7CodeGen20UnwindFunctionDwarf2ESaIS2_EE3endEv(ptr noundef nonnull align 8 dereferenceable(24) %0) #0 comdat align 2 {
  %2 = alloca %"class.__gnu_cxx::__normal_iterator", align 8
  %3 = alloca ptr, align 8
  store ptr %0, ptr %3, align 8, !tbaa !35
  %4 = load ptr, ptr %3, align 8
  %5 = getelementptr inbounds nuw %"struct.std::_Vector_base", ptr %4, i32 0, i32 0
  %6 = getelementptr inbounds nuw %"struct.std::_Vector_base<Luau::CodeGen::UnwindFunctionDwarf2, std::allocator<Luau::CodeGen::UnwindFunctionDwarf2>>::_Vector_impl_data", ptr %5, i32 0, i32 1
  call void @_ZN9__gnu_cxx17__normal_iteratorIPKN4Luau7CodeGen20UnwindFunctionDwarf2ESt6vectorIS3_SaIS3_EEEC2ERKS5_(ptr noundef nonnull align 8 dereferenceable(8) %2, ptr noundef nonnull align 8 dereferenceable(8) %6) #11
  %7 = getelementptr inbounds nuw %"class.__gnu_cxx::__normal_iterator", ptr %2, i32 0, i32 0
  %8 = load ptr, ptr %7, align 8
  ret ptr %8
}

; Function Attrs: mustprogress nounwind uwtable
define linkonce_odr dso_local ptr @_ZNKSt6vectorIN4Luau7CodeGen20UnwindFunctionDwarf2ESaIS2_EE5beginEv(ptr noundef nonnull align 8 dereferenceable(24) %0) #0 comdat align 2 {
  %2 = alloca %"class.__gnu_cxx::__normal_iterator", align 8
  %3 = alloca ptr, align 8
  store ptr %0, ptr %3, align 8, !tbaa !35
  %4 = load ptr, ptr %3, align 8
  %5 = getelementptr inbounds nuw %"struct.std::_Vector_base", ptr %4, i32 0, i32 0
  %6 = getelementptr inbounds nuw %"struct.std::_Vector_base<Luau::CodeGen::UnwindFunctionDwarf2, std::allocator<Luau::CodeGen::UnwindFunctionDwarf2>>::_Vector_impl_data", ptr %5, i32 0, i32 0
  call void @_ZN9__gnu_cxx17__normal_iteratorIPKN4Luau7CodeGen20UnwindFunctionDwarf2ESt6vectorIS3_SaIS3_EEEC2ERKS5_(ptr noundef nonnull align 8 dereferenceable(8) %2, ptr noundef nonnull align 8 dereferenceable(8) %6) #11
  %7 = getelementptr inbounds nuw %"class.__gnu_cxx::__normal_iterator", ptr %2, i32 0, i32 0
  %8 = load ptr, ptr %7, align 8
  ret ptr %8
}

; Function Attrs: mustprogress uwtable
define dso_local noundef i64 @_ZNK4Luau7CodeGen19UnwindBuilderDwarf28finalizeEPcmPvm(ptr noundef nonnull align 8 dereferenceable(1080) %0, ptr noundef %1, i64 noundef %2, ptr noundef %3, i64 noundef %4) unnamed_addr #1 align 2 {
  %6 = alloca ptr, align 8
  %7 = alloca ptr, align 8
  %8 = alloca i64, align 8
  %9 = alloca ptr, align 8
  %10 = alloca i64, align 8
  %11 = alloca ptr, align 8
  %12 = alloca %"class.__gnu_cxx::__normal_iterator", align 8
  %13 = alloca %"class.__gnu_cxx::__normal_iterator", align 8
  %14 = alloca ptr, align 8
  %15 = alloca ptr, align 8
  store ptr %0, ptr %6, align 8, !tbaa !4
  store ptr %1, ptr %7, align 8, !tbaa !23
  store i64 %2, ptr %8, align 8, !tbaa !9
  store ptr %3, ptr %9, align 8, !tbaa !60
  store i64 %4, ptr %10, align 8, !tbaa !9
  %16 = load ptr, ptr %6, align 8
  %17 = load ptr, ptr %7, align 8, !tbaa !23
  %18 = getelementptr inbounds nuw %"class.Luau::CodeGen::UnwindBuilderDwarf2", ptr %16, i32 0, i32 3
  %19 = getelementptr inbounds [1024 x i8], ptr %18, i64 0, i64 0
  %20 = load ptr, ptr %16, align 8, !tbaa !61
  %21 = getelementptr inbounds ptr, ptr %20, i64 10
  %22 = load ptr, ptr %21, align 8
  %23 = call noundef i64 %22(ptr noundef nonnull align 8 dereferenceable(1080) %16, i64 noundef 0)
  call void @llvm.memcpy.p0.p0.i64(ptr align 1 %17, ptr align 8 %19, i64 %23, i1 false)
  call void @llvm.lifetime.start.p0(i64 8, ptr %11) #11
  %24 = getelementptr inbounds nuw %"class.Luau::CodeGen::UnwindBuilderDwarf2", ptr %16, i32 0, i32 2
  store ptr %24, ptr %11, align 8, !tbaa !35
  call void @llvm.lifetime.start.p0(i64 8, ptr %12) #11
  %25 = load ptr, ptr %11, align 8, !tbaa !35
  %26 = call ptr @_ZNKSt6vectorIN4Luau7CodeGen20UnwindFunctionDwarf2ESaIS2_EE5beginEv(ptr noundef nonnull align 8 dereferenceable(24) %25) #11
  %27 = getelementptr inbounds nuw %"class.__gnu_cxx::__normal_iterator", ptr %12, i32 0, i32 0
  store ptr %26, ptr %27, align 8
  call void @llvm.lifetime.start.p0(i64 8, ptr %13) #11
  %28 = load ptr, ptr %11, align 8, !tbaa !35
  %29 = call ptr @_ZNKSt6vectorIN4Luau7CodeGen20UnwindFunctionDwarf2ESaIS2_EE3endEv(ptr noundef nonnull align 8 dereferenceable(24) %28) #11
  %30 = getelementptr inbounds nuw %"class.__gnu_cxx::__normal_iterator", ptr %13, i32 0, i32 0
  store ptr %29, ptr %30, align 8
  br label %31

31:                                               ; preds = %79, %5
  %32 = call noundef zeroext i1 @_ZN9__gnu_cxxneIPKN4Luau7CodeGen20UnwindFunctionDwarf2ESt6vectorIS3_SaIS3_EEEEbRKNS_17__normal_iteratorIT_T0_EESE_(ptr noundef nonnull align 8 dereferenceable(8) %12, ptr noundef nonnull align 8 dereferenceable(8) %13) #11
  br i1 %32, label %34, label %33

33:                                               ; preds = %31
  call void @llvm.lifetime.end.p0(i64 8, ptr %13) #11
  call void @llvm.lifetime.end.p0(i64 8, ptr %12) #11
  call void @llvm.lifetime.end.p0(i64 8, ptr %11) #11
  br label %81

34:                                               ; preds = %31
  call void @llvm.lifetime.start.p0(i64 8, ptr %14) #11
  %35 = call noundef nonnull align 4 dereferenceable(12) ptr @_ZNK9__gnu_cxx17__normal_iteratorIPKN4Luau7CodeGen20UnwindFunctionDwarf2ESt6vectorIS3_SaIS3_EEEdeEv(ptr noundef nonnull align 8 dereferenceable(8) %12) #11
  store ptr %35, ptr %14, align 8, !tbaa !37
  call void @llvm.lifetime.start.p0(i64 8, ptr %15) #11
  %36 = load ptr, ptr %7, align 8, !tbaa !23
  %37 = load ptr, ptr %14, align 8, !tbaa !37
  %38 = getelementptr inbounds nuw %"struct.Luau::CodeGen::UnwindFunctionDwarf2", ptr %37, i32 0, i32 2
  %39 = load i32, ptr %38, align 4, !tbaa !33
  %40 = zext i32 %39 to i64
  %41 = getelementptr inbounds nuw i8, ptr %36, i64 %40
  store ptr %41, ptr %15, align 8, !tbaa !23
  %42 = load ptr, ptr %15, align 8, !tbaa !23
  %43 = getelementptr inbounds i8, ptr %42, i64 8
  %44 = load ptr, ptr %9, align 8, !tbaa !60
  %45 = ptrtoint ptr %44 to i64
  %46 = load i64, ptr %8, align 8, !tbaa !9
  %47 = add i64 %45, %46
  %48 = load ptr, ptr %14, align 8, !tbaa !37
  %49 = getelementptr inbounds nuw %"struct.Luau::CodeGen::UnwindFunctionDwarf2", ptr %48, i32 0, i32 0
  %50 = load i32, ptr %49, align 4, !tbaa !30
  %51 = zext i32 %50 to i64
  %52 = add i64 %47, %51
  %53 = call noundef ptr @_Z8writeu64Phm(ptr noundef %43, i64 noundef %52)
  %54 = load ptr, ptr %14, align 8, !tbaa !37
  %55 = getelementptr inbounds nuw %"struct.Luau::CodeGen::UnwindFunctionDwarf2", ptr %54, i32 0, i32 1
  %56 = load i32, ptr %55, align 4, !tbaa !32
  %57 = load i32, ptr @_ZN4Luau7CodeGenL18kFullBlockFunctionE, align 4, !tbaa !24
  %58 = icmp eq i32 %56, %57
  br i1 %58, label %59, label %66

59:                                               ; preds = %34
  %60 = load ptr, ptr %15, align 8, !tbaa !23
  %61 = getelementptr inbounds i8, ptr %60, i64 16
  %62 = load i64, ptr %10, align 8, !tbaa !9
  %63 = load i64, ptr %8, align 8, !tbaa !9
  %64 = sub i64 %62, %63
  %65 = call noundef ptr @_Z8writeu64Phm(ptr noundef %61, i64 noundef %64)
  br label %78

66:                                               ; preds = %34
  %67 = load ptr, ptr %15, align 8, !tbaa !23
  %68 = getelementptr inbounds i8, ptr %67, i64 16
  %69 = load ptr, ptr %14, align 8, !tbaa !37
  %70 = getelementptr inbounds nuw %"struct.Luau::CodeGen::UnwindFunctionDwarf2", ptr %69, i32 0, i32 1
  %71 = load i32, ptr %70, align 4, !tbaa !32
  %72 = load ptr, ptr %14, align 8, !tbaa !37
  %73 = getelementptr inbounds nuw %"struct.Luau::CodeGen::UnwindFunctionDwarf2", ptr %72, i32 0, i32 0
  %74 = load i32, ptr %73, align 4, !tbaa !30
  %75 = sub i32 %71, %74
  %76 = zext i32 %75 to i64
  %77 = call noundef ptr @_Z8writeu64Phm(ptr noundef %68, i64 noundef %76)
  br label %78

78:                                               ; preds = %66, %59
  call void @llvm.lifetime.end.p0(i64 8, ptr %15) #11
  call void @llvm.lifetime.end.p0(i64 8, ptr %14) #11
  br label %79

79:                                               ; preds = %78
  %80 = call noundef nonnull align 8 dereferenceable(8) ptr @_ZN9__gnu_cxx17__normal_iteratorIPKN4Luau7CodeGen20UnwindFunctionDwarf2ESt6vectorIS3_SaIS3_EEEppEv(ptr noundef nonnull align 8 dereferenceable(8) %12) #11
  br label %31

81:                                               ; preds = %33
  %82 = getelementptr inbounds nuw %"class.Luau::CodeGen::UnwindBuilderDwarf2", ptr %16, i32 0, i32 2
  %83 = call noundef i64 @_ZNKSt6vectorIN4Luau7CodeGen20UnwindFunctionDwarf2ESaIS2_EE4sizeEv(ptr noundef nonnull align 8 dereferenceable(24) %82) #11
  ret i64 %83
}