; Function Attrs: mustprogress uwtable
define dso_local noundef range(i64 -768614336404564650, 768614336404564651) i64 @_ZNK4Luau7CodeGen19UnwindBuilderDwarf28finalizeEPcmPvm(ptr noundef nonnull align 8 dereferenceable(1080) %0, ptr noundef writeonly captures(none) %1, i64 noundef %2, ptr noundef %3, i64 noundef %4) unnamed_addr #3 align 2 {
  %6 = getelementptr inbounds nuw i8, ptr %0, i64 40
  %7 = load ptr, ptr %0, align 8, !tbaa !32
  %8 = getelementptr inbounds nuw i8, ptr %7, i64 80
  %9 = load ptr, ptr %8, align 8
  %10 = tail call noundef i64 %9(ptr noundef nonnull align 8 dereferenceable(1080) %0, i64 noundef 0)
  tail call void @llvm.memcpy.p0.p0.i64(ptr align 1 %1, ptr nonnull align 8 %6, i64 %10, i1 false)
  %11 = getelementptr inbounds nuw i8, ptr %0, i64 16
  %12 = load ptr, ptr %11, align 8, !tbaa !27
  %13 = getelementptr inbounds nuw i8, ptr %0, i64 24
  %14 = load ptr, ptr %13, align 8, !tbaa !27
  %.not19 = icmp eq ptr %12, %14
  br i1 %.not19, label %._crit_edge, label %.lr.ph

.lr.ph:                                           ; preds = %5
  %15 = ptrtoint ptr %3 to i64
  %16 = add i64 %2, %15
  %17 = sub i64 %4, %2
  br label %24

._crit_edge.loopexit:                             ; preds = %40
  %.pre = load ptr, ptr %13, align 8, !tbaa !21
  %.pre21 = load ptr, ptr %11, align 8, !tbaa !25
  br label %._crit_edge

._crit_edge:                                      ; preds = %._crit_edge.loopexit, %5
  %18 = phi ptr [ %.pre21, %._crit_edge.loopexit ], [ %12, %5 ]
  %19 = phi ptr [ %.pre, %._crit_edge.loopexit ], [ %12, %5 ]
  %20 = ptrtoint ptr %19 to i64
  %21 = ptrtoint ptr %18 to i64
  %22 = sub i64 %20, %21
  %23 = sdiv exact i64 %22, 12
  ret i64 %23

24:                                               ; preds = %.lr.ph, %40
  %.sroa.016.020 = phi ptr [ %12, %.lr.ph ], [ %42, %40 ]
  %25 = getelementptr inbounds nuw i8, ptr %.sroa.016.020, i64 8
  %26 = load i32, ptr %25, align 4, !tbaa !34
  %27 = zext i32 %26 to i64
  %28 = getelementptr inbounds nuw i8, ptr %1, i64 %27
  %29 = getelementptr inbounds nuw i8, ptr %28, i64 8
  %30 = load i32, ptr %.sroa.016.020, align 4, !tbaa !28
  %31 = zext i32 %30 to i64
  %32 = add i64 %16, %31
  store i64 %32, ptr %29, align 1
  %33 = getelementptr inbounds nuw i8, ptr %.sroa.016.020, i64 4
  %34 = load i32, ptr %33, align 4, !tbaa !30
  %35 = icmp eq i32 %34, -1
  br i1 %35, label %40, label %36

36:                                               ; preds = %24
  %37 = load i32, ptr %.sroa.016.020, align 4, !tbaa !28
  %38 = sub i32 %34, %37
  %39 = zext i32 %38 to i64
  br label %40

40:                                               ; preds = %24, %36
  %.sink = phi i64 [ %39, %36 ], [ %17, %24 ]
  %41 = getelementptr inbounds nuw i8, ptr %28, i64 16
  store i64 %.sink, ptr %41, align 1
  %42 = getelementptr inbounds nuw i8, ptr %.sroa.016.020, i64 12
  %.not = icmp eq ptr %42, %14
  br i1 %.not, label %._crit_edge.loopexit, label %24
}